target datalayout = "e-m:e-p270:32:32-p271:32:32-p272:64:64-i64:64-i128:128-f80:128-n8:16:32:64-S128"
target triple = "x86_64-pc-linux-gnu"

%class.ZNMethodTableEntry = type { i64 }

@_ZN13ZNMethodTable6_tableE = hidden global ptr null, align 8
@_ZN13ZNMethodTable5_sizeE = hidden global i64 0, align 8
@_ZN13ZNMethodTable12_nregisteredE = hidden global i64 0, align 8
@_ZN13ZNMethodTable14_nunregisteredE = hidden global i64 0, align 8

; Function Attrs: mustprogress nounwind uwtable
define linkonce_odr hidden noundef i32 @_ZN5ZHash16uint32_to_uint32Ej(i32 noundef %0) #1 comdat align 2 {
  %2 = alloca i32, align 4
  store i32 %0, ptr %2, align 4
  %3 = load i32, ptr %2, align 4
  %4 = xor i32 %3, -1
  %5 = load i32, ptr %2, align 4
  %6 = shl i32 %5, 15
  %7 = add i32 %4, %6
  store i32 %7, ptr %2, align 4
  %8 = load i32, ptr %2, align 4
  %9 = load i32, ptr %2, align 4
  %10 = lshr i32 %9, 12
  %11 = xor i32 %8, %10
  store i32 %11, ptr %2, align 4
  %12 = load i32, ptr %2, align 4
  %13 = load i32, ptr %2, align 4
  %14 = shl i32 %13, 2
  %15 = add i32 %12, %14
  store i32 %15, ptr %2, align 4
  %16 = load i32, ptr %2, align 4
  %17 = load i32, ptr %2, align 4
  %18 = lshr i32 %17, 4
  %19 = xor i32 %16, %18
  store i32 %19, ptr %2, align 4
  %20 = load i32, ptr %2, align 4
  %21 = mul i32 %20, 2057
  store i32 %21, ptr %2, align 4
  %22 = load i32, ptr %2, align 4
  %23 = load i32, ptr %2, align 4
  %24 = lshr i32 %23, 16
  %25 = xor i32 %22, %24
  store i32 %25, ptr %2, align 4
  %26 = load i32, ptr %2, align 4
  ret i32 %26
}

; Function Attrs: mustprogress nounwind uwtable
define linkonce_odr hidden noundef ptr @_ZN9ZBitFieldImP7nmethodLi2ELi62ELi2EE6decodeEm(i64 noundef %0) #1 comdat align 2 {
  %2 = alloca i64, align 8
  store i64 %0, ptr %2, align 8
  %3 = load i64, ptr %2, align 8
  %4 = lshr i64 %3, 2
  %5 = and i64 %4, 4611686018427387903
  %6 = shl i64 %5, 2
  %7 = inttoptr i64 %6 to ptr
  ret ptr %7
}

; Function Attrs: mustprogress nounwind uwtable
define linkonce_odr hidden noundef zeroext i1 @_ZN9ZBitFieldImbLi1ELi1ELi0EE6decodeEm(i64 noundef %0) #1 comdat align 2 {
  %2 = alloca i64, align 8
  store i64 %0, ptr %2, align 8
  %3 = load i64, ptr %2, align 8
  %4 = lshr i64 %3, 1
  %5 = and i64 %4, 1
  %6 = shl i64 %5, 0
  %7 = icmp ne i64 %6, 0
  ret i1 %7
}

; Function Attrs: mustprogress nounwind uwtable
define linkonce_odr hidden noundef zeroext i1 @_ZN9ZBitFieldImbLi0ELi1ELi0EE6decodeEm(i64 noundef %0) #1 comdat align 2 {
  %2 = alloca i64, align 8
  store i64 %0, ptr %2, align 8
  %3 = load i64, ptr %2, align 8
  %4 = lshr i64 %3, 0
  %5 = and i64 %4, 1
  %6 = shl i64 %5, 0
  %7 = icmp ne i64 %6, 0
  ret i1 %7
}

; Function Attrs: mustprogress nounwind uwtable
define linkonce_odr hidden noundef i32 @_ZN5ZHash17address_to_uint32Em(i64 noundef %0) #1 comdat align 2 {
  %2 = alloca i64, align 8
  store i64 %0, ptr %2, align 8
  %3 = load i64, ptr %2, align 8
  %4 = lshr i64 %3, 3
  %5 = trunc i64 %4 to i32
  %6 = call noundef i32 @_ZN5ZHash16uint32_to_uint32Ej(i32 noundef %5)
  ret i32 %6
}

; Function Attrs: mustprogress nounwind uwtable
define linkonce_odr hidden noundef i64 @_ZN9ZBitFieldImP7nmethodLi2ELi62ELi2EE6encodeES1_(ptr noundef %0) #1 comdat align 2 {
  %2 = alloca ptr, align 8
  store ptr %0, ptr %2, align 8
  %3 = load ptr, ptr %2, align 8
  %4 = ptrtoint ptr %3 to i64
  %5 = lshr i64 %4, 2
  %6 = shl i64 %5, 2
  ret i64 %6
}

; Function Attrs: mustprogress nounwind uwtable
define linkonce_odr hidden noundef i64 @_ZN9ZBitFieldImbLi1ELi1ELi0EE6encodeEb(i1 noundef zeroext %0) #1 comdat align 2 {
  %2 = alloca i8, align 1
  %3 = zext i1 %0 to i8
  store i8 %3, ptr %2, align 1
  %4 = load i8, ptr %2, align 1
  %5 = trunc i8 %4 to i1
  %6 = zext i1 %5 to i64
  %7 = lshr i64 %6, 0
  %8 = shl i64 %7, 1
  ret i64 %8
}

; Function Attrs: mustprogress nounwind uwtable
define linkonce_odr hidden noundef i64 @_ZN9ZBitFieldImbLi0ELi1ELi0EE6encodeEb(i1 noundef zeroext %0) #1 comdat align 2 {
  %2 = alloca i8, align 1
  %3 = zext i1 %0 to i8
  store i8 %3, ptr %2, align 1
  %4 = load i8, ptr %2, align 1
  %5 = trunc i8 %4 to i1
  %6 = zext i1 %5 to i64
  %7 = lshr i64 %6, 0
  %8 = shl i64 %7, 0
  ret i64 %8
}

; Function Attrs: mustprogress nounwind uwtable
define hidden noundef i64 @_ZN13ZNMethodTable10next_indexEmm(i64 noundef %0, i64 noundef %1) #1 align 2 {
  %3 = alloca i64, align 8
  %4 = alloca i64, align 8
  %5 = alloca i64, align 8
  store i64 %0, ptr %3, align 8
  store i64 %1, ptr %4, align 8
  %6 = load i64, ptr %4, align 8
  %7 = sub i64 %6, 1
  store i64 %7, ptr %5, align 8
  %8 = load i64, ptr %3, align 8
  %9 = add i64 %8, 1
  %10 = load i64, ptr %5, align 8
  %11 = and i64 %9, %10
  ret i64 %11
}

; Function Attrs: mustprogress nounwind uwtable
define linkonce_odr hidden noundef ptr @_ZNK18ZNMethodTableEntry6methodEv(ptr noundef nonnull align 8 dereferenceable(8) %0) #1 comdat align 2 {
  %2 = alloca ptr, align 8
  store ptr %0, ptr %2, align 8
  %3 = load ptr, ptr %2, align 8
  %4 = getelementptr inbounds %class.ZNMethodTableEntry, ptr %3, i32 0, i32 0
  %5 = load i64, ptr %4, align 8
  %6 = call noundef ptr @_ZN9ZBitFieldImP7nmethodLi2ELi62ELi2EE6decodeEm(i64 noundef %5)
  ret ptr %6
}

; Function Attrs: mustprogress nounwind uwtable
define linkonce_odr hidden noundef zeroext i1 @_ZNK18ZNMethodTableEntry12unregisteredEv(ptr noundef nonnull align 8 dereferenceable(8) %0) #1 comdat align 2 {
  %2 = alloca ptr, align 8
  store ptr %0, ptr %2, align 8
  %3 = load ptr, ptr %2, align 8
  %4 = getelementptr inbounds %class.ZNMethodTableEntry, ptr %3, i32 0, i32 0
  %5 = load i64, ptr %4, align 8
  %6 = call noundef zeroext i1 @_ZN9ZBitFieldImbLi1ELi1ELi0EE6decodeEm(i64 noundef %5)
  ret i1 %6
}

; Function Attrs: mustprogress nounwind uwtable
define linkonce_odr hidden noundef zeroext i1 @_ZNK18ZNMethodTableEntry10registeredEv(ptr noundef nonnull align 8 dereferenceable(8) %0) #1 comdat align 2 {
  %2 = alloca ptr, align 8
  store ptr %0, ptr %2, align 8
  %3 = load ptr, ptr %2, align 8
  %4 = getelementptr inbounds %class.ZNMethodTableEntry, ptr %3, i32 0, i32 0
  %5 = load i64, ptr %4, align 8
  %6 = call noundef zeroext i1 @_ZN9ZBitFieldImbLi0ELi1ELi0EE6decodeEm(i64 noundef %5)
  ret i1 %6
}

; Function Attrs: mustprogress nounwind uwtable
define hidden noundef i64 @_ZN13ZNMethodTable11first_indexEPK7nmethodm(ptr noundef %0, i64 noundef %1) #1 align 2 {
  %3 = alloca ptr, align 8
  %4 = alloca i64, align 8
  %5 = alloca i64, align 8
  %6 = alloca i64, align 8
  store ptr %0, ptr %3, align 8
  store i64 %1, ptr %4, align 8
  %7 = load i64, ptr %4, align 8
  %8 = sub i64 %7, 1
  store i64 %8, ptr %5, align 8
  %9 = load ptr, ptr %3, align 8
  %10 = ptrtoint ptr %9 to i64
  %11 = call noundef i32 @_ZN5ZHash17address_to_uint32Em(i64 noundef %10)
  %12 = zext i32 %11 to i64
  store i64 %12, ptr %6, align 8
  %13 = load i64, ptr %6, align 8
  %14 = load i64, ptr %5, align 8
  %15 = and i64 %13, %14
  ret i64 %15
}

; Function Attrs: mustprogress nounwind uwtable
define linkonce_odr hidden void @_ZN18ZNMethodTableEntryC2EP7nmethod(ptr noundef nonnull align 8 dereferenceable(8) %0, ptr noundef %1) unnamed_addr #1 comdat align 2 {
  %3 = alloca ptr, align 8
  %4 = alloca ptr, align 8
  store ptr %0, ptr %3, align 8
  store ptr %1, ptr %4, align 8
  %5 = load ptr, ptr %3, align 8
  %6 = getelementptr inbounds %class.ZNMethodTableEntry, ptr %5, i32 0, i32 0
  %7 = call noundef i64 @_ZN9ZBitFieldImbLi0ELi1ELi0EE6encodeEb(i1 noundef zeroext true)
  %8 = call noundef i64 @_ZN9ZBitFieldImbLi1ELi1ELi0EE6encodeEb(i1 noundef zeroext false)
  %9 = or i64 %7, %8
  %10 = load ptr, ptr %4, align 8
  %11 = call noundef i64 @_ZN9ZBitFieldImP7nmethodLi2ELi62ELi2EE6encodeES1_(ptr noundef %10)
  %12 = or i64 %9, %11
  store i64 %12, ptr %6, align 8
  ret void
}

; Function Attrs: mustprogress nounwind uwtable
define hidden noundef zeroext i1 @_ZN13ZNMethodTable14register_entryEP18ZNMethodTableEntrymP7nmethod(ptr noundef %0, i64 noundef %1, ptr noundef %2) #1 align 2 {
  %4 = alloca i1, align 1
  %5 = alloca ptr, align 8
  %6 = alloca i64, align 8
  %7 = alloca ptr, align 8
  %8 = alloca %class.ZNMethodTableEntry, align 8
  %9 = alloca i64, align 8
  %10 = alloca %class.ZNMethodTableEntry, align 8
  store ptr %0, ptr %5, align 8
  store i64 %1, ptr %6, align 8
  store ptr %2, ptr %7, align 8
  %11 = load ptr, ptr %7, align 8
  call void @_ZN18ZNMethodTableEntryC2EP7nmethod(ptr noundef nonnull align 8 dereferenceable(8) %8, ptr noundef %11)
  %12 = load ptr, ptr %7, align 8
  %13 = load i64, ptr %6, align 8
  %14 = call noundef i64 @_ZN13ZNMethodTable11first_indexEPK7nmethodm(ptr noundef %12, i64 noundef %13)
  store i64 %14, ptr %9, align 8
  br label %15

15:                                               ; preds = %36, %3
  %16 = load ptr, ptr %5, align 8
  %17 = load i64, ptr %9, align 8
  %18 = getelementptr inbounds %class.ZNMethodTableEntry, ptr %16, i64 %17
  call void @llvm.memcpy.p0.p0.i64(ptr align 8 %10, ptr align 8 %18, i64 8, i1 false)
  %19 = call noundef zeroext i1 @_ZNK18ZNMethodTableEntry10registeredEv(ptr noundef nonnull align 8 dereferenceable(8) %10)
  br i1 %19, label %26, label %20

20:                                               ; preds = %15
  %21 = call noundef zeroext i1 @_ZNK18ZNMethodTableEntry12unregisteredEv(ptr noundef nonnull align 8 dereferenceable(8) %10)
  br i1 %21, label %26, label %22

22:                                               ; preds = %20
  %23 = load ptr, ptr %5, align 8
  %24 = load i64, ptr %9, align 8
  %25 = getelementptr inbounds %class.ZNMethodTableEntry, ptr %23, i64 %24
  call void @llvm.memcpy.p0.p0.i64(ptr align 8 %25, ptr align 8 %8, i64 8, i1 false)
  store i1 true, ptr %4, align 1
  br label %40

26:                                               ; preds = %20, %15
  %27 = call noundef zeroext i1 @_ZNK18ZNMethodTableEntry10registeredEv(ptr noundef nonnull align 8 dereferenceable(8) %10)
  br i1 %27, label %28, label %36

28:                                               ; preds = %26
  %29 = call noundef ptr @_ZNK18ZNMethodTableEntry6methodEv(ptr noundef nonnull align 8 dereferenceable(8) %10)
  %30 = load ptr, ptr %7, align 8
  %31 = icmp eq ptr %29, %30
  br i1 %31, label %32, label %36

32:                                               ; preds = %28
  %33 = load ptr, ptr %5, align 8
  %34 = load i64, ptr %9, align 8
  %35 = getelementptr inbounds %class.ZNMethodTableEntry, ptr %33, i64 %34
  call void @llvm.memcpy.p0.p0.i64(ptr align 8 %35, ptr align 8 %8, i64 8, i1 false)
  store i1 false, ptr %4, align 1
  br label %40

36:                                               ; preds = %28, %26
  %37 = load i64, ptr %9, align 8
  %38 = load i64, ptr %6, align 8
  %39 = call noundef i64 @_ZN13ZNMethodTable10next_indexEmm(i64 noundef %37, i64 noundef %38)
  store i64 %39, ptr %9, align 8
  br label %15, !llvm.loop !6

40:                                               ; preds = %32, %22
  %41 = load i1, ptr %4, align 1
  ret i1 %41
}

; Function Attrs: mustprogress nounwind uwtable
define hidden void @_ZN13ZNMethodTable17rebuild_if_neededEv() #1 align 2 {
  %1 = alloca i64, align 8
  %2 = alloca i64, align 8
  %3 = alloca i64, align 8
  %4 = alloca i64, align 8
  store i64 1024, ptr %1, align 8
  %5 = load i64, ptr @_ZN13ZNMethodTable5_sizeE, align 8
  %6 = uitofp i64 %5 to double
  %7 = fmul double %6, 3.000000e-01
  %8 = fptoui double %7 to i64
  store i64 %8, ptr %2, align 8
  %9 = load i64, ptr @_ZN13ZNMethodTable5_sizeE, align 8
  %10 = uitofp i64 %9 to double
  %11 = fmul double %10, 6.500000e-01
  %12 = fptoui double %11 to i64
  store i64 %12, ptr %3, align 8
  %13 = load i64, ptr @_ZN13ZNMethodTable5_sizeE, align 8
  %14 = uitofp i64 %13 to double
  %15 = fmul double %14, 0x3FE6666666666666
  %16 = fptoui double %15 to i64
  store i64 %16, ptr %4, align 8
  %17 = load i64, ptr @_ZN13ZNMethodTable5_sizeE, align 8
  %18 = icmp eq i64 %17, 0
  br i1 %18, label %19, label %20

19:                                               ; preds = %0
  call void @_ZN13ZNMethodTable7rebuildEm(i64 noundef 1024)
  br label %48

20:                                               ; preds = %0
  %21 = load i64, ptr @_ZN13ZNMethodTable12_nregisteredE, align 8
  %22 = load i64, ptr %2, align 8
  %23 = icmp ult i64 %21, %22
  br i1 %23, label %24, label %30

24:                                               ; preds = %20
  %25 = load i64, ptr @_ZN13ZNMethodTable5_sizeE, align 8
  %26 = icmp ugt i64 %25, 1024
  br i1 %26, label %27, label %30

27:                                               ; preds = %24
  %28 = load i64, ptr @_ZN13ZNMethodTable5_sizeE, align 8
  %29 = udiv i64 %28, 2
  call void @_ZN13ZNMethodTable7rebuildEm(i64 noundef %29)
  br label %47

30:                                               ; preds = %24, %20
  %31 = load i64, ptr @_ZN13ZNMethodTable12_nregisteredE, align 8
  %32 = load i64, ptr @_ZN13ZNMethodTable14_nunregisteredE, align 8
  %33 = add i64 %31, %32
  %34 = load i64, ptr %4, align 8
  %35 = icmp ugt i64 %33, %34
  br i1 %35, label %36, label %46

36:                                               ; preds = %30
  %37 = load i64, ptr @_ZN13ZNMethodTable12_nregisteredE, align 8
  %38 = load i64, ptr %3, align 8
  %39 = icmp ult i64 %37, %38
  br i1 %39, label %40, label %42

40:                                               ; preds = %36
  %41 = load i64, ptr @_ZN13ZNMethodTable5_sizeE, align 8
  call void @_ZN13ZNMethodTable7rebuildEm(i64 noundef %41)
  br label %45

42:                                               ; preds = %36
  %43 = load i64, ptr @_ZN13ZNMethodTable5_sizeE, align 8
  %44 = mul i64 %43, 2
  call void @_ZN13ZNMethodTable7rebuildEm(i64 noundef %44)
  br label %45

45:                                               ; preds = %42, %40
  br label %46

46:                                               ; preds = %45, %30
  br label %47

47:                                               ; preds = %46, %27
  br label %48

48:                                               ; preds = %47, %19
  ret void
}

; Function Attrs: mustprogress nounwind uwtable
define hidden void @_ZN13ZNMethodTable16register_nmethodEP7nmethod(ptr noundef %0) #1 align 2 {
  %2 = alloca ptr, align 8
  store ptr %0, ptr %2, align 8
  call void @_ZN13ZNMethodTable17rebuild_if_neededEv()
  %3 = load ptr, ptr @_ZN13ZNMethodTable6_tableE, align 8
  %4 = load i64, ptr @_ZN13ZNMethodTable5_sizeE, align 8
  %5 = load ptr, ptr %2, align 8
  %6 = call noundef zeroext i1 @_ZN13ZNMethodTable14register_entryEP18ZNMethodTableEntrymP7nmethod(ptr noundef %3, i64 noundef %4, ptr noundef %5)
  br i1 %6, label %7, label %10

7:                                                ; preds = %1
  %8 = load i64, ptr @_ZN13ZNMethodTable12_nregisteredE, align 8
  %9 = add i64 %8, 1
  store i64 %9, ptr @_ZN13ZNMethodTable12_nregisteredE, align 8
  br label %10

10:                                               ; preds = %7, %1
  ret void
}