; Function Attrs: mustprogress nounwind uwtable
define hidden void @_ZN13ZNMethodTable16register_nmethodEP7nmethod(ptr noundef %0) local_unnamed_addr #1 align 2 {
  %2 = load i64, ptr @_ZN13ZNMethodTable5_sizeE, align 8
  %3 = uitofp i64 %2 to double
  %4 = fmul double %3, 6.500000e-01
  %5 = fptoui double %4 to i64
  %6 = fmul double %3, 0x3FE6666666666666
  %7 = fptoui double %6 to i64
  %8 = icmp eq i64 %2, 0
  br i1 %8, label %.sink.split.i, label %9

9:                                                ; preds = %1
  %10 = fmul double %3, 3.000000e-01
  %11 = fptoui double %10 to i64
  %12 = load i64, ptr @_ZN13ZNMethodTable12_nregisteredE, align 8
  %13 = icmp ult i64 %12, %11
  %14 = icmp ugt i64 %2, 1024
  %or.cond.i = and i1 %14, %13
  br i1 %or.cond.i, label %15, label %17

15:                                               ; preds = %9
  %16 = lshr i64 %2, 1
  br label %.sink.split.i

17:                                               ; preds = %9
  %18 = load i64, ptr @_ZN13ZNMethodTable14_nunregisteredE, align 8
  %19 = add i64 %18, %12
  %20 = icmp ugt i64 %19, %7
  br i1 %20, label %21, label %_ZN13ZNMethodTable17rebuild_if_neededEv.exit

21:                                               ; preds = %17
  %22 = icmp uge i64 %12, %5
  %23 = zext i1 %22 to i64
  %spec.select.i = shl i64 %2, %23
  br label %.sink.split.i

.sink.split.i:                                    ; preds = %21, %15, %1
  %.sink.i = phi i64 [ %16, %15 ], [ 1024, %1 ], [ %spec.select.i, %21 ]
  tail call void @_ZN13ZNMethodTable7rebuildEm(i64 noundef %.sink.i)
  %.pre = load i64, ptr @_ZN13ZNMethodTable5_sizeE, align 8
  br label %_ZN13ZNMethodTable17rebuild_if_neededEv.exit

_ZN13ZNMethodTable17rebuild_if_neededEv.exit:     ; preds = %17, %.sink.split.i
  %24 = phi i64 [ %2, %17 ], [ %.pre, %.sink.split.i ]
  %25 = load ptr, ptr @_ZN13ZNMethodTable6_tableE, align 8
  %26 = ptrtoint ptr %0 to i64
  %27 = add i64 %24, 4294967295
  %28 = lshr i64 %26, 3
  %29 = trunc i64 %28 to i32
  %30 = xor i32 %29, -1
  %31 = shl i32 %29, 15
  %32 = add i32 %31, %30
  %33 = lshr i32 %32, 12
  %34 = xor i32 %33, %32
  %35 = mul i32 %34, 5
  %36 = lshr i32 %35, 4
  %37 = xor i32 %36, %35
  %38 = mul i32 %37, 2057
  %39 = lshr i32 %38, 16
  %40 = xor i32 %39, %38
  %41 = zext i32 %40 to i64
  %42 = and i64 %27, %41
  %43 = add i64 %24, -1
  br label %44

44:                                               ; preds = %54, %_ZN13ZNMethodTable17rebuild_if_neededEv.exit
  %.0.i = phi i64 [ %42, %_ZN13ZNMethodTable17rebuild_if_neededEv.exit ], [ %56, %54 ]
  %45 = getelementptr inbounds %class.ZNMethodTableEntry, ptr %25, i64 %.0.i
  %46 = load i64, ptr %45, align 8
  %47 = and i64 %46, 1
  %.not.i = icmp eq i64 %47, 0
  br i1 %.not.i, label %48, label %50

48:                                               ; preds = %44
  %49 = and i64 %46, 2
  %.not17.i = icmp eq i64 %49, 0
  br i1 %.not17.i, label %60, label %54

50:                                               ; preds = %44
  %51 = and i64 %46, -4
  %52 = inttoptr i64 %51 to ptr
  %53 = icmp eq ptr %52, %0
  br i1 %53, label %_ZN13ZNMethodTable14register_entryEP18ZNMethodTableEntrymP7nmethod.exit, label %54

54:                                               ; preds = %50, %48
  %55 = add i64 %.0.i, 1
  %56 = and i64 %55, %43
  br label %44, !llvm.loop !6

_ZN13ZNMethodTable14register_entryEP18ZNMethodTableEntrymP7nmethod.exit: ; preds = %50
  %57 = getelementptr inbounds %class.ZNMethodTableEntry, ptr %25, i64 %.0.i
  %58 = and i64 %26, -4
  %59 = or disjoint i64 %58, 1
  store i64 %59, ptr %57, align 8
  br label %66

60:                                               ; preds = %48
  %61 = getelementptr inbounds %class.ZNMethodTableEntry, ptr %25, i64 %.0.i
  %62 = and i64 %26, -4
  %63 = or disjoint i64 %62, 1
  store i64 %63, ptr %61, align 8
  %64 = load i64, ptr @_ZN13ZNMethodTable12_nregisteredE, align 8
  %65 = add i64 %64, 1
  store i64 %65, ptr @_ZN13ZNMethodTable12_nregisteredE, align 8
  br label %66

66:                                               ; preds = %_ZN13ZNMethodTable14register_entryEP18ZNMethodTableEntrymP7nmethod.exit, %60
  ret void
}